target datalayout = "e-m:e-p270:32:32-p271:32:32-p272:64:64-i64:64-i128:128-f80:128-n8:16:32:64-S128"
target triple = "x86_64-pc-linux-gnu"

@size = internal global i32 0, align 4

; Function Attrs: null_pointer_is_valid sspstrong uwtable
define hidden ptr @SetNew() #0 {
  %1 = alloca ptr, align 8
  call void @llvm.lifetime.start.p0(i64 8, ptr %1) #18
  %2 = load i32, ptr @size, align 4
  %3 = sext i32 %2 to i64
  %4 = call noalias ptr @calloc(i64 noundef %3, i64 noundef 1) #19
  store ptr %4, ptr %1, align 8
  %5 = load ptr, ptr %1, align 8
  %6 = icmp eq ptr %5, null
  br i1 %6, label %7, label %8

7:                                                ; preds = %0
  call void @memory_error()
  br label %8

8:                                                ; preds = %7, %0
  %9 = load ptr, ptr %1, align 8
  call void @llvm.lifetime.end.p0(i64 8, ptr %1) #18
  ret ptr %9
}