; Function Attrs: null_pointer_is_valid sspstrong uwtable
define hidden noalias noundef ptr @SetNew() local_unnamed_addr #0 {
  %1 = load i32, ptr @size, align 4
  %2 = sext i32 %1 to i64
  %3 = tail call noalias ptr @calloc(i64 noundef %2, i64 noundef 1) #40
  %4 = icmp eq ptr %3, null
  br i1 %4, label %5, label %6

5:                                                ; preds = %0
  tail call void @memory_error()
  unreachable

6:                                                ; preds = %0
  ret ptr %3
}